target datalayout = "e-m:e-p270:32:32-p271:32:32-p272:64:64-i64:64-i128:128-f80:128-n8:16:32:64-S128"
target triple = "x86_64-pc-linux-gnu"

%struct.select_nodeinfo = type { i16, i16, i64, ptr, double }

@.str.10 = private unnamed_addr constant [16 x i8] c"select_linear.c\00", align 1
@.str.11 = private unnamed_addr constant [45 x i8] c"select_nodeinfo_unpack: error unpacking here\00", align 1
@__func__.select_p_select_nodeinfo_alloc = private unnamed_addr constant [31 x i8] c"select_p_select_nodeinfo_alloc\00", align 1
@.str.12 = private unnamed_addr constant [50 x i8] c"select_p_select_nodeinfo_free: nodeinfo magic bad\00", align 1

; Function Attrs: nounwind uwtable
define dso_local i32 @select_p_select_nodeinfo_free(ptr noundef %0) #0 {
  %2 = alloca i32, align 4
  %3 = alloca ptr, align 8
  store ptr %0, ptr %3, align 8
  %4 = load ptr, ptr %3, align 8
  %5 = icmp ne ptr %4, null
  br i1 %5, label %6, label %19

6:                                                ; preds = %1
  %7 = load ptr, ptr %3, align 8
  %8 = getelementptr inbounds nuw %struct.select_nodeinfo, ptr %7, i32 0, i32 0
  %9 = load i16, ptr %8, align 8
  %10 = zext i16 %9 to i32
  %11 = icmp ne i32 %10, 33453
  br i1 %11, label %12, label %14

12:                                               ; preds = %6
  %13 = call i32 (ptr, ...) @slurm_error(ptr noundef @.str.12)
  store i32 22, ptr %2, align 4
  br label %20

14:                                               ; preds = %6
  %15 = load ptr, ptr %3, align 8
  %16 = getelementptr inbounds nuw %struct.select_nodeinfo, ptr %15, i32 0, i32 0
  store i16 0, ptr %16, align 8
  %17 = load ptr, ptr %3, align 8
  %18 = getelementptr inbounds nuw %struct.select_nodeinfo, ptr %17, i32 0, i32 3
  call void @slurm_xfree(ptr noundef %18)
  call void @slurm_xfree(ptr noundef %3)
  br label %19

19:                                               ; preds = %14, %1
  store i32 0, ptr %2, align 4
  br label %20

20:                                               ; preds = %19, %12
  %21 = load i32, ptr %2, align 4
  ret i32 %21
}

; Function Attrs: nounwind uwtable
define dso_local ptr @select_p_select_nodeinfo_alloc() #0 {
  %1 = alloca ptr, align 8
  call void @llvm.lifetime.start.p0(i64 8, ptr %1) #8
  %2 = call ptr @slurm_xcalloc(i64 noundef 1, i64 noundef 32, i1 noundef zeroext true, i1 noundef zeroext false, ptr noundef @.str.10, i32 noundef 2568, ptr noundef @__func__.select_p_select_nodeinfo_alloc)
  store ptr %2, ptr %1, align 8
  %3 = load ptr, ptr %1, align 8
  %4 = getelementptr inbounds nuw %struct.select_nodeinfo, ptr %3, i32 0, i32 0
  store i16 -32083, ptr %4, align 8
  %5 = load ptr, ptr %1, align 8
  call void @llvm.lifetime.end.p0(i64 8, ptr %1) #8
  ret ptr %5
}

; Function Attrs: nounwind uwtable
define dso_local i32 @select_p_select_nodeinfo_unpack(ptr noundef %0, ptr noundef %1, i16 noundef zeroext %2) #0 {
  %4 = alloca i32, align 4
  %5 = alloca ptr, align 8
  %6 = alloca ptr, align 8
  %7 = alloca i16, align 2
  %8 = alloca ptr, align 8
  %9 = alloca i32, align 4
  %10 = alloca i32, align 4
  store ptr %0, ptr %5, align 8
  store ptr %1, ptr %6, align 8
  store i16 %2, ptr %7, align 2
  call void @llvm.lifetime.start.p0(i64 8, ptr %8) #8
  store ptr null, ptr %8, align 8
  %11 = call ptr @select_p_select_nodeinfo_alloc()
  store ptr %11, ptr %8, align 8
  %12 = load ptr, ptr %8, align 8
  %13 = load ptr, ptr %5, align 8
  store ptr %12, ptr %13, align 8
  %14 = load i16, ptr %7, align 2
  %15 = zext i16 %14 to i32
  %16 = icmp sge i32 %15, 10240
  br i1 %16, label %17, label %61

17:                                               ; preds = %3
  br label %18

18:                                               ; preds = %17
  %19 = load ptr, ptr %8, align 8
  %20 = getelementptr inbounds nuw %struct.select_nodeinfo, ptr %19, i32 0, i32 1
  %21 = load ptr, ptr %6, align 8
  %22 = call i32 @slurm_unpack16(ptr noundef %20, ptr noundef %21)
  %23 = icmp ne i32 %22, 0
  br i1 %23, label %24, label %25

24:                                               ; preds = %18
  br label %62

25:                                               ; preds = %18
  br label %26

26:                                               ; preds = %25
  br label %27

27:                                               ; preds = %26
  br label %28

28:                                               ; preds = %27
  %29 = load ptr, ptr %8, align 8
  %30 = getelementptr inbounds nuw %struct.select_nodeinfo, ptr %29, i32 0, i32 2
  %31 = load ptr, ptr %6, align 8
  %32 = call i32 @slurm_unpack64(ptr noundef %30, ptr noundef %31)
  %33 = icmp ne i32 %32, 0
  br i1 %33, label %34, label %35

34:                                               ; preds = %28
  br label %62

35:                                               ; preds = %28
  br label %36

36:                                               ; preds = %35
  br label %37

37:                                               ; preds = %36
  br label %38

38:                                               ; preds = %37
  call void @llvm.lifetime.start.p0(i64 4, ptr %9) #8
  %39 = load ptr, ptr %8, align 8
  %40 = getelementptr inbounds nuw %struct.select_nodeinfo, ptr %39, i32 0, i32 3
  %41 = load ptr, ptr %6, align 8
  %42 = call i32 @slurm_unpackstr_xmalloc_chooser(ptr noundef %40, ptr noundef %9, ptr noundef %41)
  %43 = icmp ne i32 %42, 0
  br i1 %43, label %44, label %45

44:                                               ; preds = %38
  store i32 4, ptr %10, align 4
  br label %46

45:                                               ; preds = %38
  store i32 0, ptr %10, align 4
  br label %46

46:                                               ; preds = %44, %45
  call void @llvm.lifetime.end.p0(i64 4, ptr %9) #8
  %47 = load i32, ptr %10, align 4
  switch i32 %47, label %67 [
    i32 0, label %48
    i32 4, label %62
  ]

48:                                               ; preds = %46
  br label %49

49:                                               ; preds = %48
  br label %50

50:                                               ; preds = %49
  br label %51

51:                                               ; preds = %50
  %52 = load ptr, ptr %8, align 8
  %53 = getelementptr inbounds nuw %struct.select_nodeinfo, ptr %52, i32 0, i32 4
  %54 = load ptr, ptr %6, align 8
  %55 = call i32 @slurm_unpackdouble(ptr noundef %53, ptr noundef %54)
  %56 = icmp ne i32 %55, 0
  br i1 %56, label %57, label %58

57:                                               ; preds = %51
  br label %62

58:                                               ; preds = %51
  br label %59

59:                                               ; preds = %58
  br label %60

60:                                               ; preds = %59
  br label %61

61:                                               ; preds = %60, %3
  store i32 0, ptr %4, align 4
  store i32 1, ptr %10, align 4
  br label %67

62:                                               ; preds = %46, %57, %34, %24
  %63 = call i32 (ptr, ...) @slurm_error(ptr noundef @.str.11)
  %64 = load ptr, ptr %8, align 8
  %65 = call i32 @select_p_select_nodeinfo_free(ptr noundef %64)
  %66 = load ptr, ptr %5, align 8
  store ptr null, ptr %66, align 8
  store i32 -1, ptr %4, align 4
  store i32 1, ptr %10, align 4
  br label %67

67:                                               ; preds = %62, %61, %46
  call void @llvm.lifetime.end.p0(i64 8, ptr %8) #8
  %68 = load i32, ptr %4, align 4
  ret i32 %68
}