; Function Attrs: nounwind uwtable
define dso_local range(i32 -1, 1) i32 @select_p_select_nodeinfo_unpack(ptr noundef writeonly captures(none) initializes((0, 8)) %0, ptr noundef %1, i16 noundef zeroext %2) local_unnamed_addr #0 {
  %4 = alloca ptr, align 8
  %5 = alloca i32, align 4
  %6 = tail call noundef ptr @slurm_xcalloc(i64 noundef 1, i64 noundef 32, i1 noundef zeroext true, i1 noundef zeroext false, ptr noundef nonnull @.str.10, i32 noundef 2568, ptr noundef nonnull @__func__.select_p_select_nodeinfo_alloc) #11
  store i16 -32083, ptr %6, align 8
  store ptr %6, ptr %0, align 8
  %7 = icmp ugt i16 %2, 10239
  br i1 %7, label %8, label %27

8:                                                ; preds = %3
  %9 = getelementptr inbounds nuw i8, ptr %6, i64 2
  %10 = tail call i32 @slurm_unpack16(ptr noundef nonnull %9, ptr noundef %1) #11
  %.not = icmp eq i32 %10, 0
  br i1 %.not, label %11, label %20

11:                                               ; preds = %8
  %12 = getelementptr inbounds nuw i8, ptr %6, i64 8
  %13 = tail call i32 @slurm_unpack64(ptr noundef nonnull %12, ptr noundef %1) #11
  %.not15 = icmp eq i32 %13, 0
  br i1 %.not15, label %14, label %20

14:                                               ; preds = %11
  call void @llvm.lifetime.start.p0(i64 4, ptr nonnull %5) #11
  %15 = getelementptr inbounds nuw i8, ptr %6, i64 16
  %16 = call i32 @slurm_unpackstr_xmalloc_chooser(ptr noundef nonnull %15, ptr noundef nonnull %5, ptr noundef %1) #11
  %.not16 = icmp eq i32 %16, 0
  call void @llvm.lifetime.end.p0(i64 4, ptr nonnull %5) #11
  br i1 %.not16, label %17, label %20

17:                                               ; preds = %14
  %18 = getelementptr inbounds nuw i8, ptr %6, i64 24
  %19 = call i32 @slurm_unpackdouble(ptr noundef nonnull %18, ptr noundef %1) #11
  %.not17 = icmp eq i32 %19, 0
  br i1 %.not17, label %27, label %20

20:                                               ; preds = %8, %11, %17, %14
  %21 = call i32 (ptr, ...) @slurm_error(ptr noundef nonnull @.str.11) #11
  call void @llvm.lifetime.start.p0(i64 8, ptr nonnull %4)
  store ptr %6, ptr %4, align 8
  %22 = load i16, ptr %6, align 8
  %.not2.i = icmp eq i16 %22, -32083
  br i1 %.not2.i, label %25, label %23

23:                                               ; preds = %20
  %24 = call i32 (ptr, ...) @slurm_error(ptr noundef nonnull @.str.12) #11
  br label %select_p_select_nodeinfo_free.exit

25:                                               ; preds = %20
  store i16 0, ptr %6, align 8
  %26 = getelementptr inbounds nuw i8, ptr %6, i64 16
  call void @slurm_xfree(ptr noundef nonnull %26) #11
  call void @slurm_xfree(ptr noundef nonnull %4) #11
  br label %select_p_select_nodeinfo_free.exit

select_p_select_nodeinfo_free.exit:               ; preds = %23, %25
  call void @llvm.lifetime.end.p0(i64 8, ptr nonnull %4)
  store ptr null, ptr %0, align 8
  br label %27

27:                                               ; preds = %3, %17, %select_p_select_nodeinfo_free.exit
  %.014 = phi i32 [ -1, %select_p_select_nodeinfo_free.exit ], [ 0, %17 ], [ 0, %3 ]
  ret i32 %.014
}